Certificate:
    Data:
        Version: 3 (0x2)
        Serial Number:
            ea:a7:d9:bd:88:aa:46:61:cc:b5:43:cb:d9:bd:90:9e
        Signature Algorithm: sha256WithRSAEncryption
        Issuer: CN=fuzzvpn-ca
        Validity
            Not Before: Sep  1 14:37:41 2024 GMT
            Not After : Dec  5 14:37:41 2026 GMT
        Subject: CN=openvpn-client1
        Subject Public Key Info:
            Public Key Algorithm: rsaEncryption
                Public-Key: (2048 bit)
                Modulus:
                    00:c4:52:07:76:a0:81:32:48:6f:e0:09:b9:3d:83:
                    67:0f:23:3c:19:5b:83:c1:4d:8c:c6:83:f6:d7:89:
                    40:82:5f:d9:00:b8:6e:54:e2:9a:53:17:6e:9b:cb:
                    86:b7:d3:ac:0b:5d:91:8d:e6:b3:d7:bc:15:44:d8:
                    03:df:bd:1f:45:70:68:6e:31:53:84:11:d7:f5:d2:
                    3f:b1:e9:92:0d:3d:c9:2e:53:4b:cd:4f:7e:35:47:
                    a4:16:41:71:2a:22:13:c3:0f:8d:e1:73:3d:ed:33:
                    2f:53:02:96:bb:26:a7:a0:28:c4:77:40:2e:31:40:
                    10:55:0b:c4:78:7c:58:ff:36:0c:d3:1d:66:80:63:
                    fc:c4:49:98:b4:30:af:1c:67:ba:c2:f4:47:bd:19:
                    8e:79:2f:0f:83:a0:6b:86:6c:09:5f:15:27:46:eb:
                    54:98:d7:e8:71:bc:77:66:ed:a5:6e:8a:9c:31:a5:
                    d3:80:ad:ab:ee:8e:5f:b9:73:cd:57:91:d7:35:e4:
                    9f:cc:b8:98:bc:fc:85:40:cc:60:38:41:02:2c:35:
                    00:14:d4:00:59:50:52:e9:91:6d:e4:56:cf:ec:bf:
                    9b:a5:62:21:37:ff:3d:49:d5:22:a1:40:64:86:b0:
                    07:1d:39:7e:22:8a:13:bd:de:b0:70:41:24:dc:6f:
                    fc:bf
                Exponent: 65537 (0x10001)
        X509v3 extensions:
            X509v3 Basic Constraints: 
                CA:FALSE
            X509v3 Subject Key Identifier: 
                F7:B5:38:52:F1:98:7D:1D:68:EE:0E:A0:EB:6D:F3:79:0E:8B:0B:ED
            X509v3 Authority Key Identifier: 
                keyid:6F:AC:9F:1F:5F:C7:BD:BE:43:5B:0D:E0:9E:9D:19:B3:05:AB:37:C0
                DirName:/CN=fuzzvpn-ca
                serial:7D:EC:41:38:83:2B:3B:46:60:2B:74:F9:EB:00:7A:66:F2:9B:68:92
            X509v3 Extended Key Usage: 
                TLS Web Client Authentication
            X509v3 Key Usage: 
                Digital Signature
    Signature Algorithm: sha256WithRSAEncryption
    Signature Value:
        46:8c:0f:b5:f7:85:0f:58:bf:81:f1:25:d1:1d:6b:cc:ca:fc:
        fa:06:19:90:f6:36:7e:d5:78:51:f7:0a:5b:57:bc:5d:80:d4:
        12:67:d8:4d:27:52:c0:3b:60:21:20:ae:19:27:fe:2e:24:cd:
        af:19:1f:1e:16:d1:68:b1:68:74:34:4d:9b:0f:5c:30:09:0d:
        33:a4:7f:cf:be:1c:6d:58:55:21:70:87:6e:e1:de:0f:40:14:
        68:0c:82:d0:be:d6:da:3d:75:8c:d3:72:05:48:92:8e:c0:88:
        38:f1:0e:7a:a7:ac:4c:c1:62:f3:f8:54:46:78:bf:03:d8:86:
        c8:97:d1:c7:c2:aa:a5:74:cf:45:7d:2d:2f:6c:1e:27:ee:94:
        9c:bd:c6:a7:59:08:d0:c5:b0:48:8f:47:59:96:fc:b1:f9:f8:
        25:41:6f:58:77:e9:94:93:68:8b:92:88:c0:a4:0e:7e:34:5d:
        eb:f9:9b:b3:91:c6:31:51:f4:28:68:6b:f1:c0:d6:8f:2b:06:
        8c:cb:f3:ab:1c:83:ce:a6:60:d2:41:9d:58:eb:1a:25:4b:42:
        a4:54:d8:ce:2b:ee:cb:1e:53:03:ad:3f:29:90:ad:3c:71:19:
        b2:7c:76:c4:06:55:ab:c3:ec:9f:9e:71:46:9f:be:09:a3:52:
        25:11:ad:3e
-----BEGIN CERTIFICATE-----
MIIDXDCCAkSgAwIBAgIRAOqn2b2IqkZhzLVDy9m9kJ4wDQYJKoZIhvcNAQELBQAw
FTETMBEGA1UEAwwKZnV6enZwbi1jYTAeFw0yNDA5MDExNDM3NDFaFw0yNjEyMDUx
NDM3NDFaMBoxGDAWBgNVBAMMD29wZW52cG4tY2xpZW50MTCCASIwDQYJKoZIhvcN
AQEBBQADggEPADCCAQoCggEBAMRSB3aggTJIb+AJuT2DZw8jPBlbg8FNjMaD9teJ
QIJf2QC4blTimlMXbpvLhrfTrAtdkY3ms9e8FUTYA9+9H0VwaG4xU4QR1/XSP7Hp
kg09yS5TS81PfjVHpBZBcSoiE8MPjeFzPe0zL1MClrsmp6AoxHdALjFAEFULxHh8
WP82DNMdZoBj/MRJmLQwrxxnusL0R70ZjnkvD4Oga4ZsCV8VJ0brVJjX6HG8d2bt
pW6KnDGl04Ctq+6OX7lzzVeR1zXkn8y4mLz8hUDMYDhBAiw1ABTUAFlQUumRbeRW
z+y/m6ViITf/PUnVIqFAZIawBx05fiKKE73esHBBJNxv/L8CAwEAAaOBoTCBnjAJ
BgNVHRMEAjAAMB0GA1UdDgQWBBT3tThS8Zh9HWjuDqDrbfN5DosL7TBQBgNVHSME
STBHgBRvrJ8fX8e9vkNbDeCenRmzBas3wKEZpBcwFTETMBEGA1UEAwwKZnV6enZw
bi1jYYIUfexBOIMrO0ZgK3T56wB6ZvKbaJIwEwYDVR0lBAwwCgYIKwYBBQUHAwIw
CwYDVR0PBAQDAgeAMA0GCSqGSIb3DQEBCwUAA4IBAQBGjA+194UPWL+B8SXRHWvM
yvz6BhmQ9jZ+1XhR9wpbV7xdgNQSZ9hNJ1LAO2AhIK4ZJ/4uJM2vGR8eFtFosWh0
NE2bD1wwCQ0zpH/PvhxtWFUhcIdu4d4PQBRoDILQvtbaPXWM03IFSJKOwIg48Q56
p6xMwWLz+FRGeL8D2IbIl9HHwqqldM9FfS0vbB4n7pScvcanWQjQxbBIj0dZlvyx
+fglQW9Yd+mUk2iLkojApA5+NF3r+ZuzkcYxUfQoaGvxwNaPKwaMy/OrHIPOpmDS
QZ1Y6xolS0KkVNjOK+7LHlMDrT8pkK08cRmyfHbEBlWrw+yfnnFGn74Jo1IlEa0+
-----END CERTIFICATE-----
